Certificate Request:
    Data:
        Version: 1 (0x0)
        Subject: C = RU, ST = Kirov, L = Kirov, O = Empty, OU = Empty, CN = Empty, emailAddress = Empty
        Subject Public Key Info:
            Public Key Algorithm: rsaEncryption
                RSA Public-Key: (2048 bit)
                Modulus:
                    00:b1:7c:df:f9:c6:56:85:76:47:f8:fd:04:80:ba:
                    54:b4:32:cb:a7:12:e5:a1:93:d5:fd:33:f9:7e:9e:
                    bd:85:83:4d:27:1e:96:32:73:96:18:f0:b2:1f:05:
                    7f:c9:16:d7:c9:dd:84:da:66:7a:c7:86:7b:4f:41:
                    35:a4:17:89:38:0d:1e:27:4b:f5:72:79:a7:93:06:
                    a4:22:45:0a:14:5b:b3:05:6b:c8:85:45:e8:bb:44:
                    9c:f9:59:b2:14:d1:1d:cb:8e:35:2a:25:e1:19:35:
                    24:7c:52:ca:e6:5e:12:3a:92:20:f4:30:78:6b:05:
                    65:e9:d3:1e:fc:43:4f:ae:2f:1d:c9:10:d6:c2:30:
                    0b:5f:66:d8:03:a6:4d:1e:57:76:fc:d4:52:d4:8e:
                    b2:0d:88:86:b3:e0:81:7d:c1:4f:a6:ea:cf:51:9b:
                    83:41:48:0e:d7:35:93:8d:b2:22:b5:c0:b0:69:0c:
                    fc:44:da:29:50:18:3a:61:3b:2e:ce:36:a0:d9:ea:
                    e4:81:40:91:33:17:81:45:c7:13:34:d7:ac:b0:78:
                    e4:ef:38:8e:dd:a4:c2:8f:61:26:e5:5c:73:0c:f0:
                    c8:d7:96:d5:78:90:40:69:31:42:32:50:ac:89:f3:
                    02:5c:ab:f1:49:c3:6d:ea:8e:2b:1c:66:07:03:50:
                    d3:77
                Exponent: 65537 (0x10001)
        Attributes:
            a0:00
    Signature Algorithm: sha256WithRSAEncryption
         53:67:05:da:be:fe:e9:bd:b2:2c:53:c1:ee:d3:ce:c3:ea:4b:
         2a:f2:f9:f0:2e:6b:2c:6c:7a:af:f5:43:ca:a9:e0:9c:ab:93:
         d7:0a:27:12:30:48:48:c4:3c:43:17:4f:04:02:39:1d:94:f2:
         67:3e:07:c4:20:a1:82:45:56:93:4b:49:1c:9d:49:84:4a:c6:
         b6:9e:2d:a6:a2:f1:5c:1c:75:d9:3f:4e:42:a7:15:1a:76:cb:
         7b:79:79:0b:4c:d4:cd:19:a2:0b:14:c5:52:db:97:bc:07:df:
         ee:1e:59:59:56:06:f4:6c:5d:1c:09:0d:41:35:ce:4a:86:85:
         6d:6f:03:c0:2c:91:9c:42:2f:43:4e:be:76:07:d4:1a:99:d5:
         b8:75:d3:d5:8d:10:d8:c7:c3:6d:10:84:cf:9c:6f:f2:ae:fe:
         3f:55:69:89:a9:a5:8f:5f:d8:e8:04:6e:58:87:1d:a3:77:55:
         7b:37:fd:79:99:c2:3f:18:c1:f3:42:2a:52:ec:33:f3:6b:7f:
         b2:8d:df:ff:42:ab:b4:25:e1:a0:85:a6:60:06:47:77:e1:82:
         cf:f6:d8:c9:04:99:0e:3e:24:63:4c:ab:cc:63:92:8d:98:a9:
         e3:86:e6:59:ef:6d:13:0a:19:26:71:5d:81:af:41:d8:da:6c:
         05:61:0a:c6
-----BEGIN CERTIFICATE REQUEST-----
MIICuDCCAaACAQAwczELMAkGA1UEBhMCUlUxDjAMBgNVBAgMBUtpcm92MQ4wDAYD
VQQHDAVLaXJvdjEOMAwGA1UECgwFRW1wdHkxDjAMBgNVBAsMBUVtcHR5MQ4wDAYD
VQQDDAVFbXB0eTEUMBIGCSqGSIb3DQEJARYFRW1wdHkwggEiMA0GCSqGSIb3DQEB
AQUAA4IBDwAwggEKAoIBAQCxfN/5xlaFdkf4/QSAulS0MsunEuWhk9X9M/l+nr2F
g00nHpYyc5YY8LIfBX/JFtfJ3YTaZnrHhntPQTWkF4k4DR4nS/VyeaeTBqQiRQoU
W7MFa8iFRei7RJz5WbIU0R3LjjUqJeEZNSR8UsrmXhI6kiD0MHhrBWXp0x78Q0+u
Lx3JENbCMAtfZtgDpk0eV3b81FLUjrINiIaz4IF9wU+m6s9Rm4NBSA7XNZONsiK1
wLBpDPxE2ilQGDphOy7ONqDZ6uSBQJEzF4FFxxM016yweOTvOI7dpMKPYSblXHMM
8MjXltV4kEBpMUIyUKyJ8wJcq/FJw23qjiscZgcDUNN3AgMBAAGgADANBgkqhkiG
9w0BAQsFAAOCAQEAU2cF2r7+6b2yLFPB7tPOw+pLKvL58C5rLGx6r/VDyqngnKuT
1wonEjBISMQ8QxdPBAI5HZTyZz4HxCChgkVWk0tJHJ1JhErGtp4tpqLxXBx12T9O
QqcVGnbLe3l5C0zUzRmiCxTFUtuXvAff7h5ZWVYG9GxdHAkNQTXOSoaFbW8DwCyR
nEIvQ06+dgfUGpnVuHXT1Y0Q2MfDbRCEz5xv8q7+P1Vpiamlj1/Y6ARuWIcdo3dV
ezf9eZnCPxjB80IqUuwz82t/so3f/0KrtCXhoIWmYAZHd+GCz/bYyQSZDj4kY0yr
zGOSjZip44bmWe9tEwoZJnFdga9B2NpsBWEKxg==
-----END CERTIFICATE REQUEST-----
